; ModuleID = '2d-conv.bc'
source_filename = "2d-conv.cpp"
target datalayout = "e-m:e-p270:32:32-p271:32:32-p272:64:64-i64:64-f80:128-n8:16:32:64-S128"
target triple = "x86_64-unknown-linux-gnu"

%"class.std::ios_base::Init" = type { i8 }
%"class.std::basic_ostream" = type { i32 (...)**, %"class.std::basic_ios" }
%"class.std::basic_ios" = type { %"class.std::ios_base", %"class.std::basic_ostream"*, i8, i8, %"class.std::basic_streambuf"*, %"class.std::ctype"*, %"class.std::num_put"*, %"class.std::num_get"* }
%"class.std::ios_base" = type { i32 (...)**, i64, i64, i32, i32, i32, %"struct.std::ios_base::_Callback_list"*, %"struct.std::ios_base::_Words", [8 x %"struct.std::ios_base::_Words"], i32, %"struct.std::ios_base::_Words"*, %"class.std::locale" }
%"struct.std::ios_base::_Callback_list" = type { %"struct.std::ios_base::_Callback_list"*, void (i32, %"class.std::ios_base"*, i32)*, i32, i32 }
%"struct.std::ios_base::_Words" = type { i8*, i64 }
%"class.std::locale" = type { %"class.std::locale::_Impl"* }
%"class.std::locale::_Impl" = type { i32, %"class.std::locale::facet"**, i64, %"class.std::locale::facet"**, i8** }
%"class.std::locale::facet" = type <{ i32 (...)**, i32, [4 x i8] }>
%"class.std::basic_streambuf" = type { i32 (...)**, i8*, i8*, i8*, i8*, i8*, i8*, %"class.std::locale" }
%"class.std::ctype" = type <{ %"class.std::locale::facet.base", [4 x i8], %struct.__locale_struct*, i8, [7 x i8], i32*, i32*, i16*, i8, [256 x i8], [256 x i8], i8, [6 x i8] }>
%"class.std::locale::facet.base" = type <{ i32 (...)**, i32 }>
%struct.__locale_struct = type { [13 x %struct.__locale_data*], i16*, i32*, i32*, [13 x i8*] }
%struct.__locale_data = type opaque
%"class.std::num_put" = type { %"class.std::locale::facet.base", [4 x i8] }
%"class.std::num_get" = type { %"class.std::locale::facet.base", [4 x i8] }
%"struct.std::chrono::time_point" = type { %"struct.std::chrono::duration" }
%"struct.std::chrono::duration" = type { i64 }
%"struct.std::chrono::duration.0" = type { double }

$_ZNSt6chronomiINS_3_V212system_clockENS_8durationIlSt5ratioILl1ELl1000000000EEEES6_EENSt11common_typeIJT0_T1_EE4typeERKNS_10time_pointIT_S8_EERKNSC_ISD_S9_EE = comdat any

$_ZNSt6chrono8durationIdSt5ratioILl1ELl1EEEC2IlS1_ILl1ELl1000000000EEvEERKNS0_IT_T0_EE = comdat any

$_ZNKSt6chrono8durationIdSt5ratioILl1ELl1EEE5countEv = comdat any

$_ZNSt6chronomiIlSt5ratioILl1ELl1000000000EElS2_EENSt11common_typeIJNS_8durationIT_T0_EENS4_IT1_T2_EEEE4typeERKS7_RKSA_ = comdat any

$_ZNKSt6chrono10time_pointINS_3_V212system_clockENS_8durationIlSt5ratioILl1ELl1000000000EEEEE16time_since_epochEv = comdat any

$_ZNKSt6chrono8durationIlSt5ratioILl1ELl1000000000EEE5countEv = comdat any

$_ZNSt6chrono8durationIlSt5ratioILl1ELl1000000000EEEC2IlvEERKT_ = comdat any

$_ZNSt6chrono13duration_castINS_8durationIdSt5ratioILl1ELl1EEEElS2_ILl1ELl1000000000EEEENSt9enable_ifIXsr13__is_durationIT_EE5valueES7_E4typeERKNS1_IT0_T1_EE = comdat any

$_ZNSt6chrono20__duration_cast_implINS_8durationIdSt5ratioILl1ELl1EEEES2_ILl1ELl1000000000EEdLb1ELb0EE6__castIlS5_EES4_RKNS1_IT_T0_EE = comdat any

$_ZNSt6chrono8durationIdSt5ratioILl1ELl1EEEC2IdvEERKT_ = comdat any

@_ZStL8__ioinit = internal global %"class.std::ios_base::Init" zeroinitializer, align 1
@__dso_handle = external hidden global i8
@_ZSt4cout = external dso_local global %"class.std::basic_ostream", align 8
@.str = private unnamed_addr constant [22 x i8] c"2D Convolution Time: \00", align 1
@.str.1 = private unnamed_addr constant [10 x i8] c" seconds\0A\00", align 1
@llvm.global_ctors = appending global [1 x { i32, void ()*, i8* }] [{ i32, void ()*, i8* } { i32 65535, void ()* @_GLOBAL__sub_I_2d_conv.cpp, i8* null }]

; Function Attrs: noinline uwtable
define internal void @__cxx_global_var_init() #0 section ".text.startup" {
entry:
  call void @_ZNSt8ios_base4InitC1Ev(%"class.std::ios_base::Init"* noundef nonnull align 1 dereferenceable(1) @_ZStL8__ioinit)
  %0 = call i32 @__cxa_atexit(void (i8*)* bitcast (void (%"class.std::ios_base::Init"*)* @_ZNSt8ios_base4InitD1Ev to void (i8*)*), i8* getelementptr inbounds (%"class.std::ios_base::Init", %"class.std::ios_base::Init"* @_ZStL8__ioinit, i64 0, i32 0), i8* nonnull @__dso_handle) #3
  ret void
}

declare dso_local void @_ZNSt8ios_base4InitC1Ev(%"class.std::ios_base::Init"* noundef nonnull align 1 dereferenceable(1)) unnamed_addr #1

; Function Attrs: nounwind
declare dso_local void @_ZNSt8ios_base4InitD1Ev(%"class.std::ios_base::Init"* noundef nonnull align 1 dereferenceable(1)) unnamed_addr #2

; Function Attrs: nounwind
declare dso_local i32 @__cxa_atexit(void (i8*)*, i8*, i8*) #3

; Function Attrs: mustprogress noinline uwtable
define dso_local void @_Z18apply2DConvolutionPA500_KdPA3_S_PA500_d([500 x double]* noundef %input, [3 x double]* noundef %filter, [500 x double]* noundef %output) #4 {
entry:
  %syncreg = call token @llvm.syncregion.start()
  br i1 true, label %pfor.ph, label %pfor.end

pfor.ph:                                          ; preds = %entry
  br label %pfor.cond

pfor.cond:                                        ; preds = %pfor.inc, %pfor.ph
  %__begin.0 = phi i32 [ 0, %pfor.ph ], [ %inc35, %pfor.inc ]
  br label %pfor.detach

pfor.detach:                                      ; preds = %pfor.cond
  %add2 = add nuw nsw i32 %__begin.0, 1
  detach within %syncreg, label %pfor.body.entry, label %pfor.inc

pfor.body.entry:                                  ; preds = %pfor.detach
  br label %pfor.body

pfor.body:                                        ; preds = %pfor.body.entry
  br label %for.body

for.body:                                         ; preds = %pfor.body, %for.inc32
  %j.03 = phi i32 [ 1, %pfor.body ], [ %inc33, %for.inc32 ]
  %idxprom = zext i32 %add2 to i64
  %idxprom4 = zext i32 %j.03 to i64
  %arrayidx5 = getelementptr inbounds [500 x double], [500 x double]* %output, i64 %idxprom, i64 %idxprom4
  store double 0.000000e+00, double* %arrayidx5, align 8
  br label %for.body8

for.body8:                                        ; preds = %for.body, %for.inc29
  %m.02 = phi i32 [ 0, %for.body ], [ %inc30, %for.inc29 ]
  br label %for.body11

for.body11:                                       ; preds = %for.body8, %for.inc
  %n.01 = phi i32 [ 0, %for.body8 ], [ %inc, %for.inc ]
  %add13 = add nuw nsw i32 %__begin.0, %m.02
  %idxprom14 = zext i32 %add13 to i64
  %sub16 = add nsw i32 %j.03, -1
  %add17 = add nsw i32 %sub16, %n.01
  %idxprom18 = sext i32 %add17 to i64
  %arrayidx19 = getelementptr inbounds [500 x double], [500 x double]* %input, i64 %idxprom14, i64 %idxprom18
  %0 = load double, double* %arrayidx19, align 8
  %idxprom20 = zext i32 %m.02 to i64
  %idxprom22 = zext i32 %n.01 to i64
  %arrayidx23 = getelementptr inbounds [3 x double], [3 x double]* %filter, i64 %idxprom20, i64 %idxprom22
  %1 = load double, double* %arrayidx23, align 8
  %idxprom25 = zext i32 %add2 to i64
  %idxprom27 = zext i32 %j.03 to i64
  %arrayidx28 = getelementptr inbounds [500 x double], [500 x double]* %output, i64 %idxprom25, i64 %idxprom27
  %2 = load double, double* %arrayidx28, align 8
  %3 = call double @llvm.fmuladd.f64(double %0, double %1, double %2)
  store double %3, double* %arrayidx28, align 8
  br label %for.inc

for.inc:                                          ; preds = %for.body11
  %inc = add nuw nsw i32 %n.01, 1
  %cmp10 = icmp ult i32 %n.01, 2
  br i1 %cmp10, label %for.body11, label %for.end, !llvm.loop !4

for.end:                                          ; preds = %for.inc
  br label %for.inc29

for.inc29:                                        ; preds = %for.end
  %inc30 = add nuw nsw i32 %m.02, 1
  %cmp7 = icmp ult i32 %m.02, 2
  br i1 %cmp7, label %for.body8, label %for.end31, !llvm.loop !6

for.end31:                                        ; preds = %for.inc29
  br label %for.inc32

for.inc32:                                        ; preds = %for.end31
  %inc33 = add nuw nsw i32 %j.03, 1
  %cmp3 = icmp ult i32 %j.03, 498
  br i1 %cmp3, label %for.body, label %for.end34, !llvm.loop !7

for.end34:                                        ; preds = %for.inc32
  br label %pfor.preattach

pfor.preattach:                                   ; preds = %for.end34
  reattach within %syncreg, label %pfor.inc

pfor.inc:                                         ; preds = %pfor.preattach, %pfor.detach
  %inc35 = add nuw nsw i32 %__begin.0, 1
  %cmp36 = icmp ult i32 %__begin.0, 497
  br i1 %cmp36, label %pfor.cond, label %pfor.cond.cleanup, !llvm.loop !8

pfor.cond.cleanup:                                ; preds = %pfor.inc
  sync within %syncreg, label %sync.continue

sync.continue:                                    ; preds = %pfor.cond.cleanup
  call void @llvm.sync.unwind(token %syncreg)
  br label %pfor.end

pfor.end:                                         ; preds = %sync.continue, %entry
  ret void
}

; Function Attrs: argmemonly nounwind willreturn
declare token @llvm.syncregion.start() #5

; Function Attrs: nofree nosync nounwind readnone speculatable willreturn
declare double @llvm.fmuladd.f64(double, double, double) #6

; Function Attrs: argmemonly willreturn
declare void @llvm.sync.unwind(token) #7

; Function Attrs: mustprogress noinline norecurse uwtable
define dso_local noundef i32 @main() #8 {
entry:
  %input = alloca [500 x [500 x double]], align 16
  %filter = alloca [3 x [3 x double]], align 16
  %output = alloca [500 x [500 x double]], align 16
  %start = alloca %"struct.std::chrono::time_point", align 8
  %end = alloca %"struct.std::chrono::time_point", align 8
  %duration = alloca %"struct.std::chrono::duration.0", align 8
  %ref.tmp = alloca %"struct.std::chrono::duration", align 8
  br label %for.body

for.body:                                         ; preds = %entry, %for.inc7
  %i.02 = phi i32 [ 0, %entry ], [ %inc8, %for.inc7 ]
  br label %for.body3

for.body3:                                        ; preds = %for.body, %for.inc
  %j.01 = phi i32 [ 0, %for.body ], [ %inc, %for.inc ]
  %mul = mul nsw i32 %i.02, 500
  %add = add nuw nsw i32 %mul, %j.01
  %add4 = add nuw nsw i32 %add, 1
  %conv = sitofp i32 %add4 to double
  %idxprom = zext i32 %i.02 to i64
  %idxprom5 = zext i32 %j.01 to i64
  %arrayidx6 = getelementptr inbounds [500 x [500 x double]], [500 x [500 x double]]* %input, i64 0, i64 %idxprom, i64 %idxprom5
  store double %conv, double* %arrayidx6, align 8
  br label %for.inc

for.inc:                                          ; preds = %for.body3
  %inc = add nuw nsw i32 %j.01, 1
  %cmp2 = icmp ult i32 %j.01, 499
  br i1 %cmp2, label %for.body3, label %for.end, !llvm.loop !10

for.end:                                          ; preds = %for.inc
  br label %for.inc7

for.inc7:                                         ; preds = %for.end
  %inc8 = add nuw nsw i32 %i.02, 1
  %cmp = icmp ult i32 %i.02, 499
  br i1 %cmp, label %for.body, label %for.end9, !llvm.loop !11

for.end9:                                         ; preds = %for.inc7
  br label %for.body13

for.body13:                                       ; preds = %for.end9, %for.inc25
  %i10.04 = phi i32 [ 0, %for.end9 ], [ %inc26, %for.inc25 ]
  br label %for.body17

for.body17:                                       ; preds = %for.body13, %for.inc22
  %j14.03 = phi i32 [ 0, %for.body13 ], [ %inc23, %for.inc22 ]
  %idxprom18 = zext i32 %i10.04 to i64
  %idxprom20 = zext i32 %j14.03 to i64
  %arrayidx21 = getelementptr inbounds [3 x [3 x double]], [3 x [3 x double]]* %filter, i64 0, i64 %idxprom18, i64 %idxprom20
  store double 5.000000e-01, double* %arrayidx21, align 8
  br label %for.inc22

for.inc22:                                        ; preds = %for.body17
  %inc23 = add nuw nsw i32 %j14.03, 1
  %cmp16 = icmp ult i32 %j14.03, 2
  br i1 %cmp16, label %for.body17, label %for.end24, !llvm.loop !12

for.end24:                                        ; preds = %for.inc22
  br label %for.inc25

for.inc25:                                        ; preds = %for.end24
  %inc26 = add nuw nsw i32 %i10.04, 1
  %cmp12 = icmp ult i32 %i10.04, 2
  br i1 %cmp12, label %for.body13, label %for.end27, !llvm.loop !13

for.end27:                                        ; preds = %for.inc25
  br label %for.body31

for.body31:                                       ; preds = %for.end27, %for.inc43
  %i28.06 = phi i32 [ 0, %for.end27 ], [ %inc44, %for.inc43 ]
  br label %for.body35

for.body35:                                       ; preds = %for.body31, %for.inc40
  %j32.05 = phi i32 [ 0, %for.body31 ], [ %inc41, %for.inc40 ]
  %idxprom36 = zext i32 %i28.06 to i64
  %idxprom38 = zext i32 %j32.05 to i64
  %arrayidx39 = getelementptr inbounds [500 x [500 x double]], [500 x [500 x double]]* %output, i64 0, i64 %idxprom36, i64 %idxprom38
  store double 0.000000e+00, double* %arrayidx39, align 8
  br label %for.inc40

for.inc40:                                        ; preds = %for.body35
  %inc41 = add nuw nsw i32 %j32.05, 1
  %cmp34 = icmp ult i32 %j32.05, 499
  br i1 %cmp34, label %for.body35, label %for.end42, !llvm.loop !14

for.end42:                                        ; preds = %for.inc40
  br label %for.inc43

for.inc43:                                        ; preds = %for.end42
  %inc44 = add nuw nsw i32 %i28.06, 1
  %cmp30 = icmp ult i32 %i28.06, 499
  br i1 %cmp30, label %for.body31, label %for.end45, !llvm.loop !15

for.end45:                                        ; preds = %for.inc43
  %call = call i64 @_ZNSt6chrono3_V212system_clock3nowEv() #3
  %coerce.dive46 = getelementptr inbounds %"struct.std::chrono::time_point", %"struct.std::chrono::time_point"* %start, i64 0, i32 0, i32 0
  store i64 %call, i64* %coerce.dive46, align 8
  %arraydecay = getelementptr inbounds [500 x [500 x double]], [500 x [500 x double]]* %input, i64 0, i64 0
  %arraydecay47 = getelementptr inbounds [3 x [3 x double]], [3 x [3 x double]]* %filter, i64 0, i64 0
  %arraydecay48 = getelementptr inbounds [500 x [500 x double]], [500 x [500 x double]]* %output, i64 0, i64 0
  call void @_Z18apply2DConvolutionPA500_KdPA3_S_PA500_d([500 x double]* noundef nonnull %arraydecay, [3 x double]* noundef nonnull %arraydecay47, [500 x double]* noundef nonnull %arraydecay48)
  %call49 = call i64 @_ZNSt6chrono3_V212system_clock3nowEv() #3
  %coerce.dive51 = getelementptr inbounds %"struct.std::chrono::time_point", %"struct.std::chrono::time_point"* %end, i64 0, i32 0, i32 0
  store i64 %call49, i64* %coerce.dive51, align 8
  %call52 = call i64 @_ZNSt6chronomiINS_3_V212system_clockENS_8durationIlSt5ratioILl1ELl1000000000EEEES6_EENSt11common_typeIJT0_T1_EE4typeERKNS_10time_pointIT_S8_EERKNSC_ISD_S9_EE(%"struct.std::chrono::time_point"* noundef nonnull align 8 dereferenceable(8) %end, %"struct.std::chrono::time_point"* noundef nonnull align 8 dereferenceable(8) %start)
  %coerce.dive53 = getelementptr inbounds %"struct.std::chrono::duration", %"struct.std::chrono::duration"* %ref.tmp, i64 0, i32 0
  store i64 %call52, i64* %coerce.dive53, align 8
  call void @_ZNSt6chrono8durationIdSt5ratioILl1ELl1EEEC2IlS1_ILl1ELl1000000000EEvEERKNS0_IT_T0_EE(%"struct.std::chrono::duration.0"* noundef nonnull align 8 dereferenceable(8) %duration, %"struct.std::chrono::duration"* noundef nonnull align 8 dereferenceable(8) %ref.tmp)
  %call54 = call noundef nonnull align 8 dereferenceable(8) %"class.std::basic_ostream"* @_ZStlsISt11char_traitsIcEERSt13basic_ostreamIcT_ES5_PKc(%"class.std::basic_ostream"* noundef nonnull align 8 dereferenceable(8) @_ZSt4cout, i8* noundef getelementptr inbounds ([22 x i8], [22 x i8]* @.str, i64 0, i64 0))
  %call55 = call noundef double @_ZNKSt6chrono8durationIdSt5ratioILl1ELl1EEE5countEv(%"struct.std::chrono::duration.0"* noundef nonnull align 8 dereferenceable(8) %duration)
  %call56 = call noundef nonnull align 8 dereferenceable(8) %"class.std::basic_ostream"* @_ZNSolsEd(%"class.std::basic_ostream"* noundef nonnull align 8 dereferenceable(8) %call54, double noundef %call55)
  %call57 = call noundef nonnull align 8 dereferenceable(8) %"class.std::basic_ostream"* @_ZStlsISt11char_traitsIcEERSt13basic_ostreamIcT_ES5_PKc(%"class.std::basic_ostream"* noundef nonnull align 8 dereferenceable(8) %call56, i8* noundef getelementptr inbounds ([10 x i8], [10 x i8]* @.str.1, i64 0, i64 0))
  ret i32 0
}

; Function Attrs: nounwind
declare dso_local i64 @_ZNSt6chrono3_V212system_clock3nowEv() #2

; Function Attrs: mustprogress noinline uwtable
define linkonce_odr dso_local i64 @_ZNSt6chronomiINS_3_V212system_clockENS_8durationIlSt5ratioILl1ELl1000000000EEEES6_EENSt11common_typeIJT0_T1_EE4typeERKNS_10time_pointIT_S8_EERKNSC_ISD_S9_EE(%"struct.std::chrono::time_point"* noundef nonnull align 8 dereferenceable(8) %__lhs, %"struct.std::chrono::time_point"* noundef nonnull align 8 dereferenceable(8) %__rhs) #4 comdat {
entry:
  %ref.tmp = alloca %"struct.std::chrono::duration", align 8
  %ref.tmp1 = alloca %"struct.std::chrono::duration", align 8
  %call = call i64 @_ZNKSt6chrono10time_pointINS_3_V212system_clockENS_8durationIlSt5ratioILl1ELl1000000000EEEEE16time_since_epochEv(%"struct.std::chrono::time_point"* noundef nonnull align 8 dereferenceable(8) %__lhs)
  %coerce.dive = getelementptr inbounds %"struct.std::chrono::duration", %"struct.std::chrono::duration"* %ref.tmp, i64 0, i32 0
  store i64 %call, i64* %coerce.dive, align 8
  %call2 = call i64 @_ZNKSt6chrono10time_pointINS_3_V212system_clockENS_8durationIlSt5ratioILl1ELl1000000000EEEEE16time_since_epochEv(%"struct.std::chrono::time_point"* noundef nonnull align 8 dereferenceable(8) %__rhs)
  %coerce.dive3 = getelementptr inbounds %"struct.std::chrono::duration", %"struct.std::chrono::duration"* %ref.tmp1, i64 0, i32 0
  store i64 %call2, i64* %coerce.dive3, align 8
  %call4 = call i64 @_ZNSt6chronomiIlSt5ratioILl1ELl1000000000EElS2_EENSt11common_typeIJNS_8durationIT_T0_EENS4_IT1_T2_EEEE4typeERKS7_RKSA_(%"struct.std::chrono::duration"* noundef nonnull align 8 dereferenceable(8) %ref.tmp, %"struct.std::chrono::duration"* noundef nonnull align 8 dereferenceable(8) %ref.tmp1)
  ret i64 %call4
}

; Function Attrs: noinline uwtable
define linkonce_odr dso_local void @_ZNSt6chrono8durationIdSt5ratioILl1ELl1EEEC2IlS1_ILl1ELl1000000000EEvEERKNS0_IT_T0_EE(%"struct.std::chrono::duration.0"* noundef nonnull align 8 dereferenceable(8) %this, %"struct.std::chrono::duration"* noundef nonnull align 8 dereferenceable(8) %__d) unnamed_addr #0 comdat align 2 {
entry:
  %ref.tmp = alloca %"struct.std::chrono::duration.0", align 8
  %__r = getelementptr inbounds %"struct.std::chrono::duration.0", %"struct.std::chrono::duration.0"* %this, i64 0, i32 0
  %call = call double @_ZNSt6chrono13duration_castINS_8durationIdSt5ratioILl1ELl1EEEElS2_ILl1ELl1000000000EEEENSt9enable_ifIXsr13__is_durationIT_EE5valueES7_E4typeERKNS1_IT0_T1_EE(%"struct.std::chrono::duration"* noundef nonnull align 8 dereferenceable(8) %__d)
  %coerce.dive = getelementptr inbounds %"struct.std::chrono::duration.0", %"struct.std::chrono::duration.0"* %ref.tmp, i64 0, i32 0
  store double %call, double* %coerce.dive, align 8
  %call2 = call noundef double @_ZNKSt6chrono8durationIdSt5ratioILl1ELl1EEE5countEv(%"struct.std::chrono::duration.0"* noundef nonnull align 8 dereferenceable(8) %ref.tmp)
  store double %call2, double* %__r, align 8
  ret void
}

declare dso_local noundef nonnull align 8 dereferenceable(8) %"class.std::basic_ostream"* @_ZStlsISt11char_traitsIcEERSt13basic_ostreamIcT_ES5_PKc(%"class.std::basic_ostream"* noundef nonnull align 8 dereferenceable(8), i8* noundef) #1

declare dso_local noundef nonnull align 8 dereferenceable(8) %"class.std::basic_ostream"* @_ZNSolsEd(%"class.std::basic_ostream"* noundef nonnull align 8 dereferenceable(8), double noundef) #1

; Function Attrs: mustprogress noinline nounwind uwtable
define linkonce_odr dso_local noundef double @_ZNKSt6chrono8durationIdSt5ratioILl1ELl1EEE5countEv(%"struct.std::chrono::duration.0"* noundef nonnull align 8 dereferenceable(8) %this) #9 comdat align 2 {
entry:
  %__r = getelementptr inbounds %"struct.std::chrono::duration.0", %"struct.std::chrono::duration.0"* %this, i64 0, i32 0
  %0 = load double, double* %__r, align 8
  ret double %0
}

; Function Attrs: mustprogress noinline uwtable
define linkonce_odr dso_local i64 @_ZNSt6chronomiIlSt5ratioILl1ELl1000000000EElS2_EENSt11common_typeIJNS_8durationIT_T0_EENS4_IT1_T2_EEEE4typeERKS7_RKSA_(%"struct.std::chrono::duration"* noundef nonnull align 8 dereferenceable(8) %__lhs, %"struct.std::chrono::duration"* noundef nonnull align 8 dereferenceable(8) %__rhs) #4 comdat {
entry:
  %retval = alloca %"struct.std::chrono::duration", align 8
  %ref.tmp = alloca i64, align 8
  %ref.tmp1 = alloca %"struct.std::chrono::duration", align 8
  %ref.tmp2 = alloca %"struct.std::chrono::duration", align 8
  %0 = getelementptr inbounds %"struct.std::chrono::duration", %"struct.std::chrono::duration"* %__lhs, i64 0, i32 0
  %1 = getelementptr inbounds %"struct.std::chrono::duration", %"struct.std::chrono::duration"* %ref.tmp1, i64 0, i32 0
  %2 = load i64, i64* %0, align 8
  store i64 %2, i64* %1, align 8
  %call = call noundef i64 @_ZNKSt6chrono8durationIlSt5ratioILl1ELl1000000000EEE5countEv(%"struct.std::chrono::duration"* noundef nonnull align 8 dereferenceable(8) %ref.tmp1)
  %3 = getelementptr inbounds %"struct.std::chrono::duration", %"struct.std::chrono::duration"* %__rhs, i64 0, i32 0
  %4 = getelementptr inbounds %"struct.std::chrono::duration", %"struct.std::chrono::duration"* %ref.tmp2, i64 0, i32 0
  %5 = load i64, i64* %3, align 8
  store i64 %5, i64* %4, align 8
  %call3 = call noundef i64 @_ZNKSt6chrono8durationIlSt5ratioILl1ELl1000000000EEE5countEv(%"struct.std::chrono::duration"* noundef nonnull align 8 dereferenceable(8) %ref.tmp2)
  %sub = sub nsw i64 %call, %call3
  store i64 %sub, i64* %ref.tmp, align 8
  call void @_ZNSt6chrono8durationIlSt5ratioILl1ELl1000000000EEEC2IlvEERKT_(%"struct.std::chrono::duration"* noundef nonnull align 8 dereferenceable(8) %retval, i64* noundef nonnull align 8 dereferenceable(8) %ref.tmp)
  %coerce.dive = getelementptr inbounds %"struct.std::chrono::duration", %"struct.std::chrono::duration"* %retval, i64 0, i32 0
  %6 = load i64, i64* %coerce.dive, align 8
  ret i64 %6
}

; Function Attrs: mustprogress noinline nounwind uwtable
define linkonce_odr dso_local i64 @_ZNKSt6chrono10time_pointINS_3_V212system_clockENS_8durationIlSt5ratioILl1ELl1000000000EEEEE16time_since_epochEv(%"struct.std::chrono::time_point"* noundef nonnull align 8 dereferenceable(8) %this) #9 comdat align 2 {
entry:
  %0 = getelementptr inbounds %"struct.std::chrono::time_point", %"struct.std::chrono::time_point"* %this, i64 0, i32 0, i32 0
  %1 = load i64, i64* %0, align 8
  ret i64 %1
}

; Function Attrs: argmemonly nofree nounwind willreturn
declare void @llvm.memcpy.p0i8.p0i8.i64(i8* noalias nocapture writeonly, i8* noalias nocapture readonly, i64, i1 immarg) #10

; Function Attrs: mustprogress noinline nounwind uwtable
define linkonce_odr dso_local noundef i64 @_ZNKSt6chrono8durationIlSt5ratioILl1ELl1000000000EEE5countEv(%"struct.std::chrono::duration"* noundef nonnull align 8 dereferenceable(8) %this) #9 comdat align 2 {
entry:
  %__r = getelementptr inbounds %"struct.std::chrono::duration", %"struct.std::chrono::duration"* %this, i64 0, i32 0
  %0 = load i64, i64* %__r, align 8
  ret i64 %0
}

; Function Attrs: noinline nounwind uwtable
define linkonce_odr dso_local void @_ZNSt6chrono8durationIlSt5ratioILl1ELl1000000000EEEC2IlvEERKT_(%"struct.std::chrono::duration"* noundef nonnull align 8 dereferenceable(8) %this, i64* noundef nonnull align 8 dereferenceable(8) %__rep) unnamed_addr #11 comdat align 2 {
entry:
  %__r = getelementptr inbounds %"struct.std::chrono::duration", %"struct.std::chrono::duration"* %this, i64 0, i32 0
  %0 = load i64, i64* %__rep, align 8
  store i64 %0, i64* %__r, align 8
  ret void
}

; Function Attrs: mustprogress noinline uwtable
define linkonce_odr dso_local double @_ZNSt6chrono13duration_castINS_8durationIdSt5ratioILl1ELl1EEEElS2_ILl1ELl1000000000EEEENSt9enable_ifIXsr13__is_durationIT_EE5valueES7_E4typeERKNS1_IT0_T1_EE(%"struct.std::chrono::duration"* noundef nonnull align 8 dereferenceable(8) %__d) #4 comdat {
entry:
  %call = call double @_ZNSt6chrono20__duration_cast_implINS_8durationIdSt5ratioILl1ELl1EEEES2_ILl1ELl1000000000EEdLb1ELb0EE6__castIlS5_EES4_RKNS1_IT_T0_EE(%"struct.std::chrono::duration"* noundef nonnull align 8 dereferenceable(8) %__d)
  ret double %call
}

; Function Attrs: mustprogress noinline uwtable
define linkonce_odr dso_local double @_ZNSt6chrono20__duration_cast_implINS_8durationIdSt5ratioILl1ELl1EEEES2_ILl1ELl1000000000EEdLb1ELb0EE6__castIlS5_EES4_RKNS1_IT_T0_EE(%"struct.std::chrono::duration"* noundef nonnull align 8 dereferenceable(8) %__d) #4 comdat align 2 {
entry:
  %retval = alloca %"struct.std::chrono::duration.0", align 8
  %ref.tmp = alloca double, align 8
  %call = call noundef i64 @_ZNKSt6chrono8durationIlSt5ratioILl1ELl1000000000EEE5countEv(%"struct.std::chrono::duration"* noundef nonnull align 8 dereferenceable(8) %__d)
  %conv = sitofp i64 %call to double
  %div = fdiv double %conv, 1.000000e+09
  store double %div, double* %ref.tmp, align 8
  call void @_ZNSt6chrono8durationIdSt5ratioILl1ELl1EEEC2IdvEERKT_(%"struct.std::chrono::duration.0"* noundef nonnull align 8 dereferenceable(8) %retval, double* noundef nonnull align 8 dereferenceable(8) %ref.tmp)
  %coerce.dive = getelementptr inbounds %"struct.std::chrono::duration.0", %"struct.std::chrono::duration.0"* %retval, i64 0, i32 0
  %0 = load double, double* %coerce.dive, align 8
  ret double %0
}

; Function Attrs: noinline nounwind uwtable
define linkonce_odr dso_local void @_ZNSt6chrono8durationIdSt5ratioILl1ELl1EEEC2IdvEERKT_(%"struct.std::chrono::duration.0"* noundef nonnull align 8 dereferenceable(8) %this, double* noundef nonnull align 8 dereferenceable(8) %__rep) unnamed_addr #11 comdat align 2 {
entry:
  %__r = getelementptr inbounds %"struct.std::chrono::duration.0", %"struct.std::chrono::duration.0"* %this, i64 0, i32 0
  %0 = load double, double* %__rep, align 8
  store double %0, double* %__r, align 8
  ret void
}

; Function Attrs: noinline uwtable
define internal void @_GLOBAL__sub_I_2d_conv.cpp() #0 section ".text.startup" {
entry:
  call void @__cxx_global_var_init()
  ret void
}

attributes #0 = { noinline uwtable "frame-pointer"="all" "min-legal-vector-width"="0" "no-trapping-math"="true" "stack-protector-buffer-size"="8" "target-cpu"="x86-64" "target-features"="+cx8,+fxsr,+mmx,+sse,+sse2,+x87" "tune-cpu"="generic" }
attributes #1 = { "frame-pointer"="all" "no-trapping-math"="true" "stack-protector-buffer-size"="8" "target-cpu"="x86-64" "target-features"="+cx8,+fxsr,+mmx,+sse,+sse2,+x87" "tune-cpu"="generic" }
attributes #2 = { nounwind "frame-pointer"="all" "no-trapping-math"="true" "stack-protector-buffer-size"="8" "target-cpu"="x86-64" "target-features"="+cx8,+fxsr,+mmx,+sse,+sse2,+x87" "tune-cpu"="generic" }
attributes #3 = { nounwind }
attributes #4 = { mustprogress noinline uwtable "frame-pointer"="all" "min-legal-vector-width"="0" "no-trapping-math"="true" "stack-protector-buffer-size"="8" "target-cpu"="x86-64" "target-features"="+cx8,+fxsr,+mmx,+sse,+sse2,+x87" "tune-cpu"="generic" }
attributes #5 = { argmemonly nounwind willreturn }
attributes #6 = { nofree nosync nounwind readnone speculatable willreturn }
attributes #7 = { argmemonly willreturn }
attributes #8 = { mustprogress noinline norecurse uwtable "frame-pointer"="all" "min-legal-vector-width"="0" "no-trapping-math"="true" "stack-protector-buffer-size"="8" "target-cpu"="x86-64" "target-features"="+cx8,+fxsr,+mmx,+sse,+sse2,+x87" "tune-cpu"="generic" }
attributes #9 = { mustprogress noinline nounwind uwtable "frame-pointer"="all" "min-legal-vector-width"="0" "no-trapping-math"="true" "stack-protector-buffer-size"="8" "target-cpu"="x86-64" "target-features"="+cx8,+fxsr,+mmx,+sse,+sse2,+x87" "tune-cpu"="generic" }
attributes #10 = { argmemonly nofree nounwind willreturn }
attributes #11 = { noinline nounwind uwtable "frame-pointer"="all" "min-legal-vector-width"="0" "no-trapping-math"="true" "stack-protector-buffer-size"="8" "target-cpu"="x86-64" "target-features"="+cx8,+fxsr,+mmx,+sse,+sse2,+x87" "tune-cpu"="generic" }

!llvm.module.flags = !{!0, !1, !2}
!llvm.ident = !{!3}

!0 = !{i32 1, !"wchar_size", i32 4}
!1 = !{i32 7, !"uwtable", i32 1}
!2 = !{i32 7, !"frame-pointer", i32 2}
!3 = !{!"clang version 14.0.6 (/afs/ece/project/seth_group/ziqiliu/uli-opencilk-project/clang a3c5ebae5d3682f08ee5fffc20678b8b69c3ae06)"}
!4 = distinct !{!4, !5}
!5 = !{!"llvm.loop.mustprogress"}
!6 = distinct !{!6, !5}
!7 = distinct !{!7, !5}
!8 = distinct !{!8, !9}
!9 = !{!"tapir.loop.spawn.strategy", i32 1}
!10 = distinct !{!10, !5}
!11 = distinct !{!11, !5}
!12 = distinct !{!12, !5}
!13 = distinct !{!13, !5}
!14 = distinct !{!14, !5}
!15 = distinct !{!15, !5}
